target datalayout = "e-m:e-p270:32:32-p271:32:32-p272:64:64-i64:64-i128:128-f80:128-n8:16:32:64-S128"
target triple = "x86_64-unknown-linux-gnu"

%"class.cineon::Reader" = type { ptr, %"struct.cineon::Header", ptr, ptr, ptr }
%"struct.cineon::Header" = type { %"struct.cineon::GenericHeader", %"struct.cineon::IndustryHeader" }
%"struct.cineon::GenericHeader" = type { i32, i32, i32, i32, i32, i32, [8 x i8], [100 x i8], [12 x i8], [12 x i8], [36 x i8], i8, i8, [2 x i8], [8 x %"struct.cineon::ImageElement"], [2 x float], [2 x float], [2 x float], [2 x float], [200 x i8], [28 x i8], i8, i8, i8, i8, i32, i32, [20 x i8], i32, i32, [100 x i8], [12 x i8], [12 x i8], [64 x i8], [32 x i8], [32 x i8], float, float, float, [40 x i8] }
%"struct.cineon::ImageElement" = type { [2 x i8], i8, i8, i32, i32, float, float, float, float }
%"struct.cineon::IndustryHeader" = type { i8, i8, i8, i8, i32, i32, [32 x i8], i32, float, [32 x i8], [200 x i8], [740 x i8] }

@_ZTVN6cineon6ReaderE = hidden unnamed_addr constant { [4 x ptr] } { [4 x ptr] [ptr null, ptr @_ZTIN6cineon6ReaderE, ptr @_ZN6cineon6ReaderD1Ev, ptr @_ZN6cineon6ReaderD0Ev] }, align 8

; Function Attrs: mustprogress uwtable
define hidden void @_ZN6cineon6ReaderC2Ev(ptr noundef nonnull align 8 dereferenceable(2080) %this) unnamed_addr #6 align 2 {
entry:
  %this.addr = alloca ptr, align 8
  store ptr %this, ptr %this.addr, align 8
  %this1 = load ptr, ptr %this.addr, align 8
  store ptr getelementptr inbounds ({ [4 x ptr] }, ptr @_ZTVN6cineon6ReaderE, i32 0, i32 0, i32 2), ptr %this1, align 8
  %header = getelementptr inbounds %"class.cineon::Reader", ptr %this1, i32 0, i32 1
  call void @_ZN6cineon6HeaderC1Ev(ptr noundef nonnull align 4 dereferenceable(2048) %header)
  %fd = getelementptr inbounds %"class.cineon::Reader", ptr %this1, i32 0, i32 2
  store ptr null, ptr %fd, align 8
  %rio = getelementptr inbounds %"class.cineon::Reader", ptr %this1, i32 0, i32 4
  store ptr null, ptr %rio, align 8
  %codec = getelementptr inbounds %"class.cineon::Reader", ptr %this1, i32 0, i32 3
  store ptr null, ptr %codec, align 8
  ret void
}