; Function Attrs: mustprogress uwtable
define hidden void @_ZN6cineon6ReaderC2Ev(ptr noundef nonnull align 8 dereferenceable(2080) %this) unnamed_addr #4 align 2 {
entry:
  store ptr getelementptr inbounds ({ [4 x ptr] }, ptr @_ZTVN6cineon6ReaderE, i64 0, i32 0, i64 2), ptr %this, align 8
  %header = getelementptr inbounds i8, ptr %this, i64 8
  tail call void @_ZN6cineon6HeaderC1Ev(ptr noundef nonnull align 4 dereferenceable(2048) %header)
  %fd = getelementptr inbounds i8, ptr %this, i64 2056
  tail call void @llvm.memset.p0.i64(ptr noundef nonnull align 8 dereferenceable(24) %fd, i8 0, i64 24, i1 false)
  ret void
}